target datalayout = "e-m:e-p270:32:32-p271:32:32-p272:64:64-i64:64-i128:128-f80:128-n8:16:32:64-S128"
target triple = "x86_64-pc-linux-gnu"

%"struct.spv::Builder::AccessChain::CoherentFlags" = type { i16, [2 x i8] }
%"class.glslang::TQualifier" = type <{ ptr, i64, i8, [3 x i8], i32, i32, i64, i64, i8, i8, i8, i8, i8, [3 x i8], i32, i8, i8, i8, i8, i32, ptr, i8, i8, [6 x i8] }>

; Function Attrs: mustprogress nounwind uwtable
define linkonce_odr void @_ZN3spv7Builder11AccessChain13CoherentFlags5clearEv(ptr noundef nonnull align 4 dereferenceable(2) %0) #4 comdat align 2 {
  %2 = alloca ptr, align 8
  store ptr %0, ptr %2, align 8
  %3 = load ptr, ptr %2, align 8
  %4 = load i16, ptr %3, align 4
  %5 = and i16 %4, -2
  %6 = or i16 %5, 0
  store i16 %6, ptr %3, align 4
  %7 = load i16, ptr %3, align 4
  %8 = and i16 %7, -3
  %9 = or i16 %8, 0
  store i16 %9, ptr %3, align 4
  %10 = load i16, ptr %3, align 4
  %11 = and i16 %10, -5
  %12 = or i16 %11, 0
  store i16 %12, ptr %3, align 4
  %13 = load i16, ptr %3, align 4
  %14 = and i16 %13, -9
  %15 = or i16 %14, 0
  store i16 %15, ptr %3, align 4
  %16 = load i16, ptr %3, align 4
  %17 = and i16 %16, -17
  %18 = or i16 %17, 0
  store i16 %18, ptr %3, align 4
  %19 = load i16, ptr %3, align 4
  %20 = and i16 %19, -33
  %21 = or i16 %20, 0
  store i16 %21, ptr %3, align 4
  %22 = load i16, ptr %3, align 4
  %23 = and i16 %22, -65
  %24 = or i16 %23, 0
  store i16 %24, ptr %3, align 4
  %25 = load i16, ptr %3, align 4
  %26 = and i16 %25, -129
  %27 = or i16 %26, 0
  store i16 %27, ptr %3, align 4
  %28 = load i16, ptr %3, align 4
  %29 = and i16 %28, -257
  %30 = or i16 %29, 0
  store i16 %30, ptr %3, align 4
  %31 = load i16, ptr %3, align 4
  %32 = and i16 %31, -513
  %33 = or i16 %32, 0
  store i16 %33, ptr %3, align 4
  ret void
}

; Function Attrs: mustprogress nounwind uwtable
define linkonce_odr noundef zeroext i1 @_ZNK3spv7Builder11AccessChain13CoherentFlags11anyCoherentEv(ptr noundef nonnull align 4 dereferenceable(2) %0) #4 comdat align 2 {
  %2 = alloca ptr, align 8
  store ptr %0, ptr %2, align 8
  %3 = load ptr, ptr %2, align 8
  %4 = load i16, ptr %3, align 4
  %5 = and i16 %4, 1
  %6 = zext i16 %5 to i32
  %7 = icmp ne i32 %6, 0
  br i1 %7, label %38, label %8

8:                                                ; preds = %1
  %9 = load i16, ptr %3, align 4
  %10 = lshr i16 %9, 1
  %11 = and i16 %10, 1
  %12 = zext i16 %11 to i32
  %13 = icmp ne i32 %12, 0
  br i1 %13, label %38, label %14

14:                                               ; preds = %8
  %15 = load i16, ptr %3, align 4
  %16 = lshr i16 %15, 2
  %17 = and i16 %16, 1
  %18 = zext i16 %17 to i32
  %19 = icmp ne i32 %18, 0
  br i1 %19, label %38, label %20

20:                                               ; preds = %14
  %21 = load i16, ptr %3, align 4
  %22 = lshr i16 %21, 3
  %23 = and i16 %22, 1
  %24 = zext i16 %23 to i32
  %25 = icmp ne i32 %24, 0
  br i1 %25, label %38, label %26

26:                                               ; preds = %20
  %27 = load i16, ptr %3, align 4
  %28 = lshr i16 %27, 4
  %29 = and i16 %28, 1
  %30 = zext i16 %29 to i32
  %31 = icmp ne i32 %30, 0
  br i1 %31, label %38, label %32

32:                                               ; preds = %26
  %33 = load i16, ptr %3, align 4
  %34 = lshr i16 %33, 5
  %35 = and i16 %34, 1
  %36 = zext i16 %35 to i32
  %37 = icmp ne i32 %36, 0
  br label %38

38:                                               ; preds = %32, %26, %20, %14, %8, %1
  %39 = phi i1 [ true, %26 ], [ true, %20 ], [ true, %14 ], [ true, %8 ], [ true, %1 ], [ %37, %32 ]
  ret i1 %39
}

; Function Attrs: mustprogress nounwind uwtable
define linkonce_odr void @_ZN3spv7Builder11AccessChain13CoherentFlagsC2Ev(ptr noundef nonnull align 4 dereferenceable(2) %0) unnamed_addr #4 comdat align 2 {
  %2 = alloca ptr, align 8
  store ptr %0, ptr %2, align 8
  %3 = load ptr, ptr %2, align 8
  call void @_ZN3spv7Builder11AccessChain13CoherentFlags5clearEv(ptr noundef nonnull align 4 dereferenceable(2) %3)
  ret void
}

; Function Attrs: mustprogress nounwind uwtable
define internal i32 @_ZN12_GLOBAL__N_122TGlslangToSpvTraverser17TranslateCoherentERKN7glslang5TTypeE(ptr noundef nonnull align 8 dereferenceable(3528) %0, ptr noundef nonnull align 8 dereferenceable(152) %1) #4 align 2 {
  %3 = alloca %"struct.spv::Builder::AccessChain::CoherentFlags", align 4
  %4 = alloca ptr, align 8
  %5 = alloca ptr, align 8
  store ptr %0, ptr %4, align 8
  store ptr %1, ptr %5, align 8
  call void @_ZN3spv7Builder11AccessChain13CoherentFlagsC2Ev(ptr noundef nonnull align 4 dereferenceable(2) %3)
  %6 = load ptr, ptr %5, align 8
  %7 = load ptr, ptr %6, align 8
  %8 = getelementptr inbounds ptr, ptr %7, i64 11
  %9 = load ptr, ptr %8, align 8
  %10 = call noundef nonnull align 8 dereferenceable(80) ptr %9(ptr noundef nonnull align 8 dereferenceable(152) %6)
  %11 = getelementptr inbounds %"class.glslang::TQualifier", ptr %10, i32 0, i32 1
  %12 = load i64, ptr %11, align 8
  %13 = lshr i64 %12, 49
  %14 = and i64 %13, 1
  %15 = trunc i64 %14 to i1
  %16 = zext i1 %15 to i32
  %17 = trunc i32 %16 to i16
  %18 = load i16, ptr %3, align 4
  %19 = and i16 %17, 1
  %20 = and i16 %18, -2
  %21 = or i16 %20, %19
  store i16 %21, ptr %3, align 4
  %22 = load ptr, ptr %5, align 8
  %23 = load ptr, ptr %22, align 8
  %24 = getelementptr inbounds ptr, ptr %23, i64 11
  %25 = load ptr, ptr %24, align 8
  %26 = call noundef nonnull align 8 dereferenceable(80) ptr %25(ptr noundef nonnull align 8 dereferenceable(152) %22)
  %27 = getelementptr inbounds %"class.glslang::TQualifier", ptr %26, i32 0, i32 1
  %28 = load i64, ptr %27, align 8
  %29 = lshr i64 %28, 51
  %30 = and i64 %29, 1
  %31 = trunc i64 %30 to i1
  %32 = zext i1 %31 to i32
  %33 = trunc i32 %32 to i16
  %34 = load i16, ptr %3, align 4
  %35 = and i16 %33, 1
  %36 = shl i16 %35, 1
  %37 = and i16 %34, -3
  %38 = or i16 %37, %36
  store i16 %38, ptr %3, align 4
  %39 = load ptr, ptr %5, align 8
  %40 = load ptr, ptr %39, align 8
  %41 = getelementptr inbounds ptr, ptr %40, i64 11
  %42 = load ptr, ptr %41, align 8
  %43 = call noundef nonnull align 8 dereferenceable(80) ptr %42(ptr noundef nonnull align 8 dereferenceable(152) %39)
  %44 = getelementptr inbounds %"class.glslang::TQualifier", ptr %43, i32 0, i32 1
  %45 = load i64, ptr %44, align 8
  %46 = lshr i64 %45, 52
  %47 = and i64 %46, 1
  %48 = trunc i64 %47 to i1
  %49 = zext i1 %48 to i32
  %50 = trunc i32 %49 to i16
  %51 = load i16, ptr %3, align 4
  %52 = and i16 %50, 1
  %53 = shl i16 %52, 2
  %54 = and i16 %51, -5
  %55 = or i16 %54, %53
  store i16 %55, ptr %3, align 4
  %56 = load ptr, ptr %5, align 8
  %57 = load ptr, ptr %56, align 8
  %58 = getelementptr inbounds ptr, ptr %57, i64 11
  %59 = load ptr, ptr %58, align 8
  %60 = call noundef nonnull align 8 dereferenceable(80) ptr %59(ptr noundef nonnull align 8 dereferenceable(152) %56)
  %61 = getelementptr inbounds %"class.glslang::TQualifier", ptr %60, i32 0, i32 1
  %62 = load i64, ptr %61, align 8
  %63 = lshr i64 %62, 53
  %64 = and i64 %63, 1
  %65 = trunc i64 %64 to i1
  br i1 %65, label %77, label %66

66:                                               ; preds = %2
  %67 = load ptr, ptr %5, align 8
  %68 = load ptr, ptr %67, align 8
  %69 = getelementptr inbounds ptr, ptr %68, i64 11
  %70 = load ptr, ptr %69, align 8
  %71 = call noundef nonnull align 8 dereferenceable(80) ptr %70(ptr noundef nonnull align 8 dereferenceable(152) %67)
  %72 = getelementptr inbounds %"class.glslang::TQualifier", ptr %71, i32 0, i32 1
  %73 = load i64, ptr %72, align 8
  %74 = and i64 %73, 127
  %75 = trunc i64 %74 to i32
  %76 = icmp eq i32 %75, 7
  br label %77

77:                                               ; preds = %66, %2
  %78 = phi i1 [ true, %2 ], [ %76, %66 ]
  %79 = zext i1 %78 to i32
  %80 = trunc i32 %79 to i16
  %81 = load i16, ptr %3, align 4
  %82 = and i16 %80, 1
  %83 = shl i16 %82, 3
  %84 = and i16 %81, -9
  %85 = or i16 %84, %83
  store i16 %85, ptr %3, align 4
  %86 = load ptr, ptr %5, align 8
  %87 = load ptr, ptr %86, align 8
  %88 = getelementptr inbounds ptr, ptr %87, i64 11
  %89 = load ptr, ptr %88, align 8
  %90 = call noundef nonnull align 8 dereferenceable(80) ptr %89(ptr noundef nonnull align 8 dereferenceable(152) %86)
  %91 = getelementptr inbounds %"class.glslang::TQualifier", ptr %90, i32 0, i32 1
  %92 = load i64, ptr %91, align 8
  %93 = lshr i64 %92, 54
  %94 = and i64 %93, 1
  %95 = trunc i64 %94 to i1
  %96 = zext i1 %95 to i32
  %97 = trunc i32 %96 to i16
  %98 = load i16, ptr %3, align 4
  %99 = and i16 %97, 1
  %100 = shl i16 %99, 4
  %101 = and i16 %98, -17
  %102 = or i16 %101, %100
  store i16 %102, ptr %3, align 4
  %103 = load ptr, ptr %5, align 8
  %104 = load ptr, ptr %103, align 8
  %105 = getelementptr inbounds ptr, ptr %104, i64 11
  %106 = load ptr, ptr %105, align 8
  %107 = call noundef nonnull align 8 dereferenceable(80) ptr %106(ptr noundef nonnull align 8 dereferenceable(152) %103)
  %108 = getelementptr inbounds %"class.glslang::TQualifier", ptr %107, i32 0, i32 1
  %109 = load i64, ptr %108, align 8
  %110 = lshr i64 %109, 55
  %111 = and i64 %110, 1
  %112 = trunc i64 %111 to i1
  %113 = zext i1 %112 to i32
  %114 = trunc i32 %113 to i16
  %115 = load i16, ptr %3, align 4
  %116 = and i16 %114, 1
  %117 = shl i16 %116, 5
  %118 = and i16 %115, -33
  %119 = or i16 %118, %117
  store i16 %119, ptr %3, align 4
  %120 = load ptr, ptr %5, align 8
  %121 = load ptr, ptr %120, align 8
  %122 = getelementptr inbounds ptr, ptr %121, i64 11
  %123 = load ptr, ptr %122, align 8
  %124 = call noundef nonnull align 8 dereferenceable(80) ptr %123(ptr noundef nonnull align 8 dereferenceable(152) %120)
  %125 = getelementptr inbounds %"class.glslang::TQualifier", ptr %124, i32 0, i32 1
  %126 = load i64, ptr %125, align 8
  %127 = lshr i64 %126, 50
  %128 = and i64 %127, 1
  %129 = trunc i64 %128 to i1
  %130 = zext i1 %129 to i32
  %131 = trunc i32 %130 to i16
  %132 = load i16, ptr %3, align 4
  %133 = and i16 %131, 1
  %134 = shl i16 %133, 7
  %135 = and i16 %132, -129
  %136 = or i16 %135, %134
  store i16 %136, ptr %3, align 4
  %137 = load ptr, ptr %5, align 8
  %138 = load ptr, ptr %137, align 8
  %139 = getelementptr inbounds ptr, ptr %138, i64 11
  %140 = load ptr, ptr %139, align 8
  %141 = call noundef nonnull align 8 dereferenceable(80) ptr %140(ptr noundef nonnull align 8 dereferenceable(152) %137)
  %142 = getelementptr inbounds %"class.glslang::TQualifier", ptr %141, i32 0, i32 1
  %143 = load i64, ptr %142, align 8
  %144 = lshr i64 %143, 56
  %145 = and i64 %144, 1
  %146 = trunc i64 %145 to i1
  br i1 %146, label %155, label %147

147:                                              ; preds = %77
  %148 = call noundef zeroext i1 @_ZNK3spv7Builder11AccessChain13CoherentFlags11anyCoherentEv(ptr noundef nonnull align 4 dereferenceable(2) %3)
  br i1 %148, label %155, label %149

149:                                              ; preds = %147
  %150 = load i16, ptr %3, align 4
  %151 = lshr i16 %150, 7
  %152 = and i16 %151, 1
  %153 = zext i16 %152 to i32
  %154 = icmp ne i32 %153, 0
  br label %155

155:                                              ; preds = %149, %147, %77
  %156 = phi i1 [ true, %147 ], [ true, %77 ], [ %154, %149 ]
  %157 = zext i1 %156 to i32
  %158 = trunc i32 %157 to i16
  %159 = load i16, ptr %3, align 4
  %160 = and i16 %158, 1
  %161 = shl i16 %160, 6
  %162 = and i16 %159, -65
  %163 = or i16 %162, %161
  store i16 %163, ptr %3, align 4
  %164 = load ptr, ptr %5, align 8
  %165 = load ptr, ptr %164, align 8
  %166 = getelementptr inbounds ptr, ptr %165, i64 7
  %167 = load ptr, ptr %166, align 8
  %168 = call noundef i32 %167(ptr noundef nonnull align 8 dereferenceable(152) %164)
  %169 = icmp eq i32 %168, 14
  %170 = zext i1 %169 to i32
  %171 = trunc i32 %170 to i16
  %172 = load i16, ptr %3, align 4
  %173 = and i16 %171, 1
  %174 = shl i16 %173, 8
  %175 = and i16 %172, -257
  %176 = or i16 %175, %174
  store i16 %176, ptr %3, align 4
  %177 = load ptr, ptr %5, align 8
  %178 = load ptr, ptr %177, align 8
  %179 = getelementptr inbounds ptr, ptr %178, i64 11
  %180 = load ptr, ptr %179, align 8
  %181 = call noundef nonnull align 8 dereferenceable(80) ptr %180(ptr noundef nonnull align 8 dereferenceable(152) %177)
  %182 = getelementptr inbounds %"class.glslang::TQualifier", ptr %181, i32 0, i32 1
  %183 = load i64, ptr %182, align 8
  %184 = lshr i64 %183, 33
  %185 = and i64 %184, 1
  %186 = trunc i64 %185 to i1
  %187 = zext i1 %186 to i32
  %188 = trunc i32 %187 to i16
  %189 = load i16, ptr %3, align 4
  %190 = and i16 %188, 1
  %191 = shl i16 %190, 9
  %192 = and i16 %189, -513
  %193 = or i16 %192, %191
  store i16 %193, ptr %3, align 4
  %194 = load i32, ptr %3, align 4
  ret i32 %194
}