; Function Attrs: mustprogress nounwind uwtable
define internal fastcc range(i32 0, 1024) i32 @_ZN12_GLOBAL__N_122TGlslangToSpvTraverser17TranslateCoherentERKN7glslang5TTypeE(ptr noundef nonnull align 8 dereferenceable(152) %0) unnamed_addr #3 align 2 {
  %2 = load ptr, ptr %0, align 8
  %3 = getelementptr inbounds nuw i8, ptr %2, i64 88
  %4 = load ptr, ptr %3, align 8
  %5 = tail call noundef nonnull align 8 dereferenceable(80) ptr %4(ptr noundef nonnull align 8 dereferenceable(152) %0) #20
  %6 = getelementptr inbounds nuw i8, ptr %5, i64 8
  %7 = load i64, ptr %6, align 8
  %8 = load ptr, ptr %0, align 8
  %9 = getelementptr inbounds nuw i8, ptr %8, i64 88
  %10 = load ptr, ptr %9, align 8
  %11 = tail call noundef nonnull align 8 dereferenceable(80) ptr %10(ptr noundef nonnull align 8 dereferenceable(152) %0) #20
  %12 = getelementptr inbounds nuw i8, ptr %11, i64 8
  %13 = load i64, ptr %12, align 8
  %14 = load ptr, ptr %0, align 8
  %15 = getelementptr inbounds nuw i8, ptr %14, i64 88
  %16 = load ptr, ptr %15, align 8
  %17 = tail call noundef nonnull align 8 dereferenceable(80) ptr %16(ptr noundef nonnull align 8 dereferenceable(152) %0) #20
  %18 = getelementptr inbounds nuw i8, ptr %17, i64 8
  %19 = load i64, ptr %18, align 8
  %20 = load ptr, ptr %0, align 8
  %21 = getelementptr inbounds nuw i8, ptr %20, i64 88
  %22 = load ptr, ptr %21, align 8
  %23 = tail call noundef nonnull align 8 dereferenceable(80) ptr %22(ptr noundef nonnull align 8 dereferenceable(152) %0) #20
  %24 = getelementptr inbounds nuw i8, ptr %23, i64 8
  %25 = load i64, ptr %24, align 8
  %26 = and i64 %25, 9007199254740992
  %.not = icmp eq i64 %26, 0
  br i1 %.not, label %27, label %37

27:                                               ; preds = %1
  %28 = load ptr, ptr %0, align 8
  %29 = getelementptr inbounds nuw i8, ptr %28, i64 88
  %30 = load ptr, ptr %29, align 8
  %31 = tail call noundef nonnull align 8 dereferenceable(80) ptr %30(ptr noundef nonnull align 8 dereferenceable(152) %0) #20
  %32 = getelementptr inbounds nuw i8, ptr %31, i64 8
  %33 = load i64, ptr %32, align 8
  %34 = and i64 %33, 127
  %35 = icmp eq i64 %34, 7
  %36 = select i1 %35, i16 8, i16 0
  br label %37

37:                                               ; preds = %27, %1
  %38 = phi i16 [ 8, %1 ], [ %36, %27 ]
  %39 = lshr i64 %7, 49
  %40 = trunc nuw nsw i64 %39 to i16
  %41 = and i16 %40, 1
  %sh.diff = lshr i64 %13, 50
  %tr.sh.diff = trunc nuw nsw i64 %sh.diff to i16
  %42 = and i16 %tr.sh.diff, 2
  %43 = or disjoint i16 %42, %41
  %sh.diff11 = lshr i64 %19, 50
  %tr.sh.diff12 = trunc nuw nsw i64 %sh.diff11 to i16
  %44 = and i16 %tr.sh.diff12, 4
  %45 = or disjoint i16 %43, %44
  %46 = or disjoint i16 %45, %38
  %47 = load ptr, ptr %0, align 8
  %48 = getelementptr inbounds nuw i8, ptr %47, i64 88
  %49 = load ptr, ptr %48, align 8
  %50 = tail call noundef nonnull align 8 dereferenceable(80) ptr %49(ptr noundef nonnull align 8 dereferenceable(152) %0) #20
  %51 = getelementptr inbounds nuw i8, ptr %50, i64 8
  %52 = load i64, ptr %51, align 8
  %sh.diff13 = lshr i64 %52, 50
  %tr.sh.diff14 = trunc nuw nsw i64 %sh.diff13 to i16
  %53 = and i16 %tr.sh.diff14, 16
  %54 = or disjoint i16 %46, %53
  %55 = load ptr, ptr %0, align 8
  %56 = getelementptr inbounds nuw i8, ptr %55, i64 88
  %57 = load ptr, ptr %56, align 8
  %58 = tail call noundef nonnull align 8 dereferenceable(80) ptr %57(ptr noundef nonnull align 8 dereferenceable(152) %0) #20
  %59 = getelementptr inbounds nuw i8, ptr %58, i64 8
  %60 = load i64, ptr %59, align 8
  %sh.diff15 = lshr i64 %60, 50
  %tr.sh.diff16 = trunc nuw nsw i64 %sh.diff15 to i16
  %61 = and i16 %tr.sh.diff16, 32
  %62 = load ptr, ptr %0, align 8
  %63 = getelementptr inbounds nuw i8, ptr %62, i64 88
  %64 = load ptr, ptr %63, align 8
  %65 = tail call noundef nonnull align 8 dereferenceable(80) ptr %64(ptr noundef nonnull align 8 dereferenceable(152) %0) #20
  %66 = getelementptr inbounds nuw i8, ptr %65, i64 8
  %67 = load i64, ptr %66, align 8
  %sh.diff17 = lshr i64 %67, 43
  %tr.sh.diff18 = trunc i64 %sh.diff17 to i16
  %68 = and i16 %tr.sh.diff18, 128
  %69 = or disjoint i16 %54, %61
  %70 = or disjoint i16 %68, %69
  %71 = load ptr, ptr %0, align 8
  %72 = getelementptr inbounds nuw i8, ptr %71, i64 88
  %73 = load ptr, ptr %72, align 8
  %74 = tail call noundef nonnull align 8 dereferenceable(80) ptr %73(ptr noundef nonnull align 8 dereferenceable(152) %0) #20
  %75 = getelementptr inbounds nuw i8, ptr %74, i64 8
  %76 = load i64, ptr %75, align 8
  %77 = and i64 %76, 72057594037927936
  %.not19 = icmp ne i64 %77, 0
  %78 = icmp ne i16 %69, 0
  %or.cond = select i1 %.not19, i1 true, i1 %78
  %79 = lshr i16 %70, 1
  %80 = and i16 %79, 64
  %81 = select i1 %or.cond, i16 64, i16 %80
  %82 = and i16 %70, -833
  %83 = or disjoint i16 %81, %82
  %84 = load ptr, ptr %0, align 8
  %85 = getelementptr inbounds nuw i8, ptr %84, i64 56
  %86 = load ptr, ptr %85, align 8
  %87 = tail call noundef i32 %86(ptr noundef nonnull align 8 dereferenceable(152) %0) #20
  %88 = icmp eq i32 %87, 14
  %89 = select i1 %88, i16 256, i16 0
  %90 = or disjoint i16 %83, %89
  %91 = load ptr, ptr %0, align 8
  %92 = getelementptr inbounds nuw i8, ptr %91, i64 88
  %93 = load ptr, ptr %92, align 8
  %94 = tail call noundef nonnull align 8 dereferenceable(80) ptr %93(ptr noundef nonnull align 8 dereferenceable(152) %0) #20
  %95 = getelementptr inbounds nuw i8, ptr %94, i64 8
  %96 = load i64, ptr %95, align 8
  %sh.diff20 = lshr i64 %96, 24
  %tr.sh.diff21 = trunc i64 %sh.diff20 to i16
  %97 = and i16 %tr.sh.diff21, 512
  %98 = or disjoint i16 %90, %97
  %.sroa.0.0.insert.ext = zext nneg i16 %98 to i32
  ret i32 %.sroa.0.0.insert.ext
}